Certificate:
    Data:
        Version: 3 (0x2)
        Serial Number: 11988360117959724374 (0xa65f36029e730d56)
    Signature Algorithm: sha256WithRSAEncryption
        Issuer: O=Hackint IRC Network, OU=http://www.hackint.org, CN=Hackint IRC Network Root CA/emailAddress=ca@hackint.org
        Validity
            Not Before: Jul  1 00:00:00 2015 GMT
            Not After : Dec 31 23:59:59 2035 GMT
        Subject: O=Hackint IRC Network, OU=http://www.hackint.org, CN=Hackint IRC Network Root CA/emailAddress=ca@hackint.org
        Subject Public Key Info:
            Public Key Algorithm: rsaEncryption
                Public-Key: (4096 bit)
                Modulus:
                    00:e2:e7:b3:d6:18:b1:cc:7f:19:4d:ca:3b:57:51:
                    2e:28:60:ae:fb:f8:2d:41:c8:9b:73:88:35:98:6c:
                    48:9a:9a:b9:98:6c:e6:77:ba:4c:df:1f:89:c7:1c:
                    e2:ee:02:24:08:4f:c4:f0:f2:05:57:33:0e:b0:08:
                    da:65:01:43:74:98:02:10:86:1b:b5:d0:fc:2c:04:
                    b8:df:eb:7f:05:fc:d4:cf:cc:19:b3:88:c6:72:ca:
                    e4:ab:bf:20:24:66:9e:8a:b6:fe:43:01:7c:a6:21:
                    5e:82:ec:b9:95:c2:12:62:a8:2e:7e:60:50:b5:25:
                    b6:49:b7:cc:06:ad:ec:3f:60:ba:eb:a1:85:09:9b:
                    49:fb:16:95:bf:12:45:2b:97:77:10:38:72:15:e7:
                    11:65:f4:bc:51:e3:18:7f:94:2d:40:b8:0b:1a:c2:
                    ff:2f:6b:14:05:1a:2b:a7:db:91:78:8d:de:a5:fc:
                    4b:df:d2:da:fa:db:c9:29:11:71:f8:86:ca:64:78:
                    db:10:87:db:94:52:98:f1:0a:93:50:aa:1e:d6:ca:
                    2d:4c:fd:08:62:2b:d1:85:b8:e0:dd:d3:0b:14:ef:
                    b8:8e:7d:c7:09:97:71:55:7f:f6:e3:2d:c3:bd:08:
                    e3:0b:38:15:9a:26:01:29:24:c3:70:8f:6b:81:93:
                    ba:4c:29:27:30:dd:2d:aa:be:da:81:c5:fe:d5:b5:
                    fb:e5:c8:f7:97:e4:2e:fe:5c:25:d7:56:20:45:71:
                    8b:9b:ce:63:65:36:ae:67:de:a1:1b:30:6e:2d:ab:
                    07:71:47:83:21:6e:1c:b8:06:13:86:90:53:5d:51:
                    1b:1f:e0:de:3b:4e:f3:d5:e9:e8:25:1c:f2:dc:d3:
                    9b:98:bc:be:55:21:d7:4d:c4:7d:63:ae:9c:55:61:
                    7e:fa:29:7b:e9:47:8f:af:51:36:18:56:2f:26:d8:
                    0e:11:7f:e2:4c:23:90:84:2d:f8:9e:d9:c8:60:86:
                    18:a8:8c:0b:8a:0e:e2:9f:99:6d:ef:f9:f9:2e:1a:
                    48:c4:0b:90:3c:35:fc:c3:ec:43:86:24:1d:a8:b0:
                    06:ca:3f:aa:f1:ef:bb:55:b8:0a:34:78:c3:cb:1e:
                    28:e9:81:87:22:5c:81:a8:a6:bc:2a:16:b8:ed:b6:
                    f4:5a:32:41:b2:c3:02:ea:e8:90:f2:7c:1f:21:32:
                    f3:2f:99:53:e7:ab:1e:33:6e:63:9a:4b:f5:2d:da:
                    2a:d5:c1:4d:24:f6:38:83:37:6f:5d:4e:f7:37:c9:
                    21:f0:5b:46:dd:f8:bb:79:7d:62:43:0c:bf:e5:6f:
                    68:ad:f1:9f:29:25:89:99:c2:dd:5e:ee:f9:78:2c:
                    d7:66:d9
                Exponent: 65537 (0x10001)
        X509v3 extensions:
            X509v3 Basic Constraints: critical
                CA:TRUE
            X509v3 Subject Key Identifier: 
                15:99:CF:BE:19:58:9C:1D:0E:C8:E0:50:E9:3E:46:5D:AF:79:CD:0B
            X509v3 Key Usage: critical
                Certificate Sign, CRL Sign
            Authority Information Access: 
                CA Issuers - URI:http://hackint.org/ca.html

    Signature Algorithm: sha256WithRSAEncryption
         1b:cd:a1:76:62:e9:7e:f1:bb:45:86:ed:09:be:85:e2:ef:05:
         04:5c:6f:cd:1e:18:7b:99:ce:3c:12:9a:03:e0:87:03:e2:86:
         49:c9:c1:16:0f:c4:f9:a3:08:f8:84:37:8f:84:a0:6a:bd:0c:
         64:ac:2e:e5:f2:37:11:37:58:45:e5:d6:b5:2b:84:df:f5:27:
         4f:d5:35:7d:f5:13:4c:db:8a:c2:41:4c:de:9e:5b:ca:b5:73:
         82:61:77:7c:8e:da:48:01:72:a1:af:3c:c6:5e:91:fd:fc:e3:
         5e:b5:c2:a7:e7:82:cb:fb:44:2d:39:9a:d9:64:61:f9:53:91:
         09:7d:fd:ee:1f:85:15:5b:b1:dc:9b:5f:04:3f:ba:b9:6e:77:
         30:e9:8d:bd:27:76:86:77:62:f1:1a:55:6e:09:25:31:f5:16:
         c5:cc:0a:cf:e4:7d:ed:05:e1:36:8a:47:df:72:75:ae:64:66:
         f7:f4:54:69:d2:a3:0a:18:88:7b:ec:cc:fd:e6:49:50:f3:9b:
         22:a8:82:68:23:ff:a9:50:31:ae:ec:07:4e:2f:04:b6:93:45:
         35:30:8e:c5:ed:25:c1:9e:a5:54:d2:d6:ba:7e:f3:63:7f:af:
         93:43:ee:93:a2:aa:9d:f0:65:34:62:b5:40:3c:64:4d:02:c8:
         2d:d8:06:a3:95:90:d7:56:0d:a0:c9:87:1b:3b:4b:81:9b:62:
         58:b1:8b:36:14:eb:b4:02:11:34:ab:9c:de:cc:34:04:e9:6f:
         fa:8b:22:1f:e2:af:0c:db:d1:2a:e7:dc:d9:e3:64:68:67:cb:
         ab:b4:c9:76:18:80:2b:68:0a:91:86:00:43:9c:df:0c:1c:12:
         b2:96:ed:0a:cb:33:62:01:00:8a:7d:cf:aa:84:14:74:6f:1f:
         fb:82:38:f4:4d:31:4b:b3:d6:40:4e:f9:7b:b2:7d:30:29:c4:
         95:0c:40:3d:69:3d:c6:e6:61:b6:47:96:50:7b:24:a4:28:eb:
         34:ee:e4:dd:db:21:57:47:eb:9f:63:b1:3e:d4:a0:42:38:ed:
         67:14:0a:41:96:33:41:f3:e4:8f:f7:95:b8:5c:16:c5:06:3d:
         a5:97:4e:92:ee:df:44:66:da:2c:4c:93:6d:01:d9:5b:cd:36:
         ae:09:9a:2f:1c:48:b5:64:0a:a9:9c:46:d5:96:bb:46:52:a8:
         e1:6b:ab:f5:91:ae:60:a3:00:12:73:e6:84:98:f6:2a:59:97:
         24:06:88:75:01:7a:2c:0d:cd:4b:42:af:a5:6b:4e:7e:b8:da:
         6a:ba:07:1c:e5:27:af:10:71:08:19:5f:a0:1a:70:c3:7a:fb:
         24:14:06:39:52:bd:e5:2c
-----BEGIN CERTIFICATE-----
MIIGBzCCA++gAwIBAgIJAKZfNgKecw1WMA0GCSqGSIb3DQEBCwUAMIGEMRwwGgYD
VQQKExNIYWNraW50IElSQyBOZXR3b3JrMR8wHQYDVQQLExZodHRwOi8vd3d3Lmhh
Y2tpbnQub3JnMSQwIgYDVQQDExtIYWNraW50IElSQyBOZXR3b3JrIFJvb3QgQ0Ex
HTAbBgkqhkiG9w0BCQEWDmNhQGhhY2tpbnQub3JnMB4XDTE1MDcwMTAwMDAwMFoX
DTM1MTIzMTIzNTk1OVowgYQxHDAaBgNVBAoTE0hhY2tpbnQgSVJDIE5ldHdvcmsx
HzAdBgNVBAsTFmh0dHA6Ly93d3cuaGFja2ludC5vcmcxJDAiBgNVBAMTG0hhY2tp
bnQgSVJDIE5ldHdvcmsgUm9vdCBDQTEdMBsGCSqGSIb3DQEJARYOY2FAaGFja2lu
dC5vcmcwggIiMA0GCSqGSIb3DQEBAQUAA4ICDwAwggIKAoICAQDi57PWGLHMfxlN
yjtXUS4oYK77+C1ByJtziDWYbEiamrmYbOZ3ukzfH4nHHOLuAiQIT8Tw8gVXMw6w
CNplAUN0mAIQhhu10PwsBLjf638F/NTPzBmziMZyyuSrvyAkZp6Ktv5DAXymIV6C
7LmVwhJiqC5+YFC1JbZJt8wGrew/YLrroYUJm0n7FpW/EkUrl3cQOHIV5xFl9LxR
4xh/lC1AuAsawv8vaxQFGiun25F4jd6l/Evf0tr628kpEXH4hspkeNsQh9uUUpjx
CpNQqh7Wyi1M/QhiK9GFuODd0wsU77iOfccJl3FVf/bjLcO9COMLOBWaJgEpJMNw
j2uBk7pMKScw3S2qvtqBxf7VtfvlyPeX5C7+XCXXViBFcYubzmNlNq5n3qEbMG4t
qwdxR4Mhbhy4BhOGkFNdURsf4N47TvPV6eglHPLc05uYvL5VIddNxH1jrpxVYX76
KXvpR4+vUTYYVi8m2A4Rf+JMI5CELfie2chghhiojAuKDuKfmW3v+fkuGkjEC5A8
NfzD7EOGJB2osAbKP6rx77tVuAo0eMPLHijpgYciXIGoprwqFrjttvRaMkGywwLq
6JDyfB8hMvMvmVPnqx4zbmOaS/Ut2irVwU0k9jiDN29dTvc3ySHwW0bd+Lt5fWJD
DL/lb2it8Z8pJYmZwt1e7vl4LNdm2QIDAQABo3oweDAPBgNVHRMBAf8EBTADAQH/
MB0GA1UdDgQWBBQVmc++GVicHQ7I4FDpPkZdr3nNCzAOBgNVHQ8BAf8EBAMCAQYw
NgYIKwYBBQUHAQEEKjAoMCYGCCsGAQUFBzAChhpodHRwOi8vaGFja2ludC5vcmcv
Y2EuaHRtbDANBgkqhkiG9w0BAQsFAAOCAgEAG82hdmLpfvG7RYbtCb6F4u8FBFxv
zR4Ye5nOPBKaA+CHA+KGScnBFg/E+aMI+IQ3j4Sgar0MZKwu5fI3ETdYReXWtSuE
3/UnT9U1ffUTTNuKwkFM3p5byrVzgmF3fI7aSAFyoa88xl6R/fzjXrXCp+eCy/tE
LTma2WRh+VORCX397h+FFVux3JtfBD+6uW53MOmNvSd2hndi8RpVbgklMfUWxcwK
z+R97QXhNopH33J1rmRm9/RUadKjChiIe+zM/eZJUPObIqiCaCP/qVAxruwHTi8E
tpNFNTCOxe0lwZ6lVNLWun7zY3+vk0Puk6KqnfBlNGK1QDxkTQLILdgGo5WQ11YN
oMmHGztLgZtiWLGLNhTrtAIRNKuc3sw0BOlv+osiH+KvDNvRKufc2eNkaGfLq7TJ
dhiAK2gKkYYAQ5zfDBwSspbtCsszYgEAin3PqoQUdG8f+4I49E0xS7PWQE75e7J9
MCnElQxAPWk9xuZhtkeWUHskpCjrNO7k3dshV0frn2OxPtSgQjjtZxQKQZYzQfPk
j/eVuFwWxQY9pZdOku7fRGbaLEyTbQHZW802rgmaLxxItWQKqZxG1Za7RlKo4Wur
9ZGuYKMAEnPmhJj2KlmXJAaIdQF6LA3NS0KvpWtOfrjaaroHHOUnrxBxCBlfoBpw
w3r7JBQGOVK95Sw=
-----END CERTIFICATE-----
